; Function Attrs: mustprogress uwtable
define void @_ZNK27colvarbias_restraint_moving16get_state_paramsB5cxx11Ev(ptr dead_on_unwind noalias writable sret(%"class.std::__cxx11::basic_string") align 8 %0, ptr nocapture noundef nonnull readonly align 8 dereferenceable(72) %1) unnamed_addr #4 align 2 personality ptr @__gxx_personality_v0 {
  %3 = alloca %"class.std::__cxx11::basic_ostringstream", align 8
  call void @_ZNSt7__cxx1119basic_ostringstreamIcSt11char_traitsIcESaIcEEC1Ev(ptr noundef nonnull align 8 dereferenceable(112) %3)
  %4 = load ptr, ptr %3, align 8
  %5 = getelementptr i8, ptr %4, i64 -24
  %6 = load i64, ptr %5, align 8
  %7 = getelementptr inbounds i8, ptr %3, i64 %6
  %8 = getelementptr inbounds i8, ptr %7, i64 24
  %9 = load i32, ptr %8, align 8
  %10 = and i32 %9, -261
  %11 = or disjoint i32 %10, 256
  store i32 %11, ptr %8, align 4
  %12 = getelementptr inbounds i8, ptr %1, i64 8
  %13 = load i8, ptr %12, align 8
  %14 = trunc i8 %13 to i1
  br i1 %14, label %19, label %15

15:                                               ; preds = %2
  %16 = getelementptr inbounds i8, ptr %1, i64 9
  %17 = load i8, ptr %16, align 1
  %18 = trunc i8 %17 to i1
  br i1 %18, label %19, label %46

19:                                               ; preds = %15, %2
  %20 = invoke noundef nonnull align 8 dereferenceable(8) ptr @_ZStlsISt11char_traitsIcEERSt13basic_ostreamIcT_ES5_PKc(ptr noundef nonnull align 8 dereferenceable(8) %3, ptr noundef nonnull @.str.26)
          to label %21 unwind label %44

21:                                               ; preds = %19
  %22 = load i64, ptr @_ZN12colvarmodule8it_widthE, align 8
  %23 = trunc i64 %22 to i32
  %24 = invoke noundef nonnull align 8 dereferenceable(8) ptr @_ZStlsIcSt11char_traitsIcEERSt13basic_ostreamIT_T0_ES6_St5_Setw(ptr noundef nonnull align 8 dereferenceable(8) %20, i32 %23)
          to label %25 unwind label %44

25:                                               ; preds = %21
  %26 = getelementptr inbounds i8, ptr %1, i64 56
  %27 = load i64, ptr %26, align 8
  %28 = invoke noundef nonnull align 8 dereferenceable(8) ptr @_ZNSolsEx(ptr noundef nonnull align 8 dereferenceable(8) %24, i64 noundef %27)
          to label %29 unwind label %44

29:                                               ; preds = %25
  %30 = invoke noundef nonnull align 8 dereferenceable(8) ptr @_ZStlsISt11char_traitsIcEERSt13basic_ostreamIcT_ES5_PKc(ptr noundef nonnull align 8 dereferenceable(8) %28, ptr noundef nonnull @.str.19)
          to label %31 unwind label %44

31:                                               ; preds = %29
  %32 = getelementptr inbounds i8, ptr %1, i64 12
  %33 = load i32, ptr %32, align 4
  %.not = icmp eq i32 %33, 0
  br i1 %.not, label %46, label %34

34:                                               ; preds = %31
  %35 = invoke noundef nonnull align 8 dereferenceable(8) ptr @_ZStlsISt11char_traitsIcEERSt13basic_ostreamIcT_ES5_PKc(ptr noundef nonnull align 8 dereferenceable(8) %3, ptr noundef nonnull @.str.27)
          to label %36 unwind label %44

36:                                               ; preds = %34
  %37 = invoke noundef nonnull align 8 dereferenceable(8) ptr @_ZStlsIcSt11char_traitsIcEERSt13basic_ostreamIT_T0_ES6_St5_Setw(ptr noundef nonnull align 8 dereferenceable(8) %35, i32 %23)
          to label %38 unwind label %44

38:                                               ; preds = %36
  %39 = getelementptr inbounds i8, ptr %1, i64 16
  %40 = load i32, ptr %39, align 8
  %41 = invoke noundef nonnull align 8 dereferenceable(8) ptr @_ZNSolsEi(ptr noundef nonnull align 8 dereferenceable(8) %37, i32 noundef %40)
          to label %42 unwind label %44

42:                                               ; preds = %38
  %43 = invoke noundef nonnull align 8 dereferenceable(8) ptr @_ZStlsISt11char_traitsIcEERSt13basic_ostreamIcT_ES5_PKc(ptr noundef nonnull align 8 dereferenceable(8) %41, ptr noundef nonnull @.str.19)
          to label %46 unwind label %44

44:                                               ; preds = %46, %42, %38, %36, %34, %29, %25, %21, %19
  %45 = landingpad { ptr, i32 }
          cleanup
  call void @_ZNSt7__cxx1119basic_ostringstreamIcSt11char_traitsIcESaIcEED1Ev(ptr noundef nonnull align 8 dereferenceable(112) %3) #26
  resume { ptr, i32 } %45

46:                                               ; preds = %31, %42, %15
  invoke void @_ZNKSt7__cxx1119basic_ostringstreamIcSt11char_traitsIcESaIcEE3strEv(ptr dead_on_unwind writable sret(%"class.std::__cxx11::basic_string") align 8 %0, ptr noundef nonnull align 8 dereferenceable(112) %3)
          to label %47 unwind label %44

47:                                               ; preds = %46
  call void @_ZNSt7__cxx1119basic_ostringstreamIcSt11char_traitsIcESaIcEED1Ev(ptr noundef nonnull align 8 dereferenceable(112) %3) #26
  ret void
}